; Function Attrs: nounwind uwtable
define ptr @l_Array_anyMUnsafe_any___at_Lean_Elab_Deriving_BEq_mkMatch_mkAlts___spec__4___boxed(ptr noundef %0, ptr noundef %1, ptr noundef %2, ptr noundef %3, ptr noundef %4, ptr noundef %5, ptr noundef %6, ptr noundef %7, ptr noundef %8, ptr noundef %9, ptr noundef %10) local_unnamed_addr #0 {
  %12 = getelementptr i8, ptr %2, i64 8
  %.val = load i64, ptr %12, align 8, !tbaa !13
  %13 = ptrtoint ptr %2 to i64
  %14 = and i64 %13, 1
  %.not = icmp eq i64 %14, 0
  br i1 %.not, label %15, label %lean_dec.exit23

15:                                               ; preds = %11
  %16 = load i32, ptr %2, align 4, !tbaa !9
  %17 = icmp sgt i32 %16, 1
  br i1 %17, label %18, label %20, !prof !12

18:                                               ; preds = %15
  %19 = add nsw i32 %16, -1
  store i32 %19, ptr %2, align 4, !tbaa !9
  br label %lean_dec.exit23

20:                                               ; preds = %15
  %.not.i = icmp eq i32 %16, 0
  br i1 %.not.i, label %lean_dec.exit23, label %21

21:                                               ; preds = %20
  tail call void @lean_dec_ref_cold(ptr noundef nonnull %2) #5
  br label %lean_dec.exit23

lean_dec.exit23:                                  ; preds = %21, %20, %18, %11
  %22 = getelementptr i8, ptr %3, i64 8
  %.val34 = load i64, ptr %22, align 8, !tbaa !13
  %23 = ptrtoint ptr %3 to i64
  %24 = and i64 %23, 1
  %.not35 = icmp eq i64 %24, 0
  br i1 %.not35, label %25, label %lean_dec.exit22

25:                                               ; preds = %lean_dec.exit23
  %26 = load i32, ptr %3, align 4, !tbaa !9
  %27 = icmp sgt i32 %26, 1
  br i1 %27, label %28, label %30, !prof !12

28:                                               ; preds = %25
  %29 = add nsw i32 %26, -1
  store i32 %29, ptr %3, align 4, !tbaa !9
  br label %lean_dec.exit22

30:                                               ; preds = %25
  %.not.i24 = icmp eq i32 %26, 0
  br i1 %.not.i24, label %lean_dec.exit22, label %31

31:                                               ; preds = %30
  tail call void @lean_dec_ref_cold(ptr noundef nonnull %3) #5
  br label %lean_dec.exit22

lean_dec.exit22:                                  ; preds = %31, %30, %28, %lean_dec.exit23
  %32 = tail call ptr @l_Array_anyMUnsafe_any___at_Lean_Elab_Deriving_BEq_mkMatch_mkAlts___spec__4(ptr noundef %0, ptr noundef %1, i64 noundef %.val, i64 noundef %.val34, ptr poison, ptr poison, ptr noundef %6, ptr noundef %7, ptr noundef %8, ptr noundef %9, ptr noundef %10)
  %33 = ptrtoint ptr %5 to i64
  %34 = and i64 %33, 1
  %.not36 = icmp eq i64 %34, 0
  br i1 %.not36, label %35, label %lean_dec.exit21

35:                                               ; preds = %lean_dec.exit22
  %36 = load i32, ptr %5, align 4, !tbaa !9
  %37 = icmp sgt i32 %36, 1
  br i1 %37, label %38, label %40, !prof !12

38:                                               ; preds = %35
  %39 = add nsw i32 %36, -1
  store i32 %39, ptr %5, align 4, !tbaa !9
  br label %lean_dec.exit21

40:                                               ; preds = %35
  %.not.i26 = icmp eq i32 %36, 0
  br i1 %.not.i26, label %lean_dec.exit21, label %41

41:                                               ; preds = %40
  tail call void @lean_dec_ref_cold(ptr noundef nonnull %5) #5
  br label %lean_dec.exit21

lean_dec.exit21:                                  ; preds = %41, %40, %38, %lean_dec.exit22
  %42 = ptrtoint ptr %4 to i64
  %43 = and i64 %42, 1
  %.not37 = icmp eq i64 %43, 0
  br i1 %.not37, label %44, label %lean_dec.exit20

44:                                               ; preds = %lean_dec.exit21
  %45 = load i32, ptr %4, align 4, !tbaa !9
  %46 = icmp sgt i32 %45, 1
  br i1 %46, label %47, label %49, !prof !12

47:                                               ; preds = %44
  %48 = add nsw i32 %45, -1
  store i32 %48, ptr %4, align 4, !tbaa !9
  br label %lean_dec.exit20

49:                                               ; preds = %44
  %.not.i28 = icmp eq i32 %45, 0
  br i1 %.not.i28, label %lean_dec.exit20, label %50

50:                                               ; preds = %49
  tail call void @lean_dec_ref_cold(ptr noundef nonnull %4) #5
  br label %lean_dec.exit20

lean_dec.exit20:                                  ; preds = %50, %49, %47, %lean_dec.exit21
  %51 = ptrtoint ptr %1 to i64
  %52 = and i64 %51, 1
  %.not38 = icmp eq i64 %52, 0
  br i1 %.not38, label %53, label %lean_dec.exit19

53:                                               ; preds = %lean_dec.exit20
  %54 = load i32, ptr %1, align 4, !tbaa !9
  %55 = icmp sgt i32 %54, 1
  br i1 %55, label %56, label %58, !prof !12

56:                                               ; preds = %53
  %57 = add nsw i32 %54, -1
  store i32 %57, ptr %1, align 4, !tbaa !9
  br label %lean_dec.exit19

58:                                               ; preds = %53
  %.not.i30 = icmp eq i32 %54, 0
  br i1 %.not.i30, label %lean_dec.exit19, label %59

59:                                               ; preds = %58
  tail call void @lean_dec_ref_cold(ptr noundef nonnull %1) #5
  br label %lean_dec.exit19

lean_dec.exit19:                                  ; preds = %59, %58, %56, %lean_dec.exit20
  %60 = ptrtoint ptr %0 to i64
  %61 = and i64 %60, 1
  %.not39 = icmp eq i64 %61, 0
  br i1 %.not39, label %62, label %lean_dec.exit

62:                                               ; preds = %lean_dec.exit19
  %63 = load i32, ptr %0, align 4, !tbaa !9
  %64 = icmp sgt i32 %63, 1
  br i1 %64, label %65, label %67, !prof !12

65:                                               ; preds = %62
  %66 = add nsw i32 %63, -1
  store i32 %66, ptr %0, align 4, !tbaa !9
  br label %lean_dec.exit

67:                                               ; preds = %62
  %.not.i32 = icmp eq i32 %63, 0
  br i1 %.not.i32, label %lean_dec.exit, label %68

68:                                               ; preds = %67
  tail call void @lean_dec_ref_cold(ptr noundef nonnull %0) #5
  br label %lean_dec.exit

lean_dec.exit:                                    ; preds = %68, %67, %65, %lean_dec.exit19
  ret ptr %32
}